target datalayout = "e-m:e-p270:32:32-p271:32:32-p272:64:64-i64:64-i128:128-f80:128-n8:16:32:64-S128"
target triple = "x86_64-pc-linux-gnu"

%struct.OSQPSolver = type { ptr, ptr, ptr, ptr }
%struct.OSQPWorkspace_ = type { ptr, ptr, ptr, ptr, ptr, ptr, ptr, ptr, ptr, ptr, ptr, ptr, ptr, ptr, ptr, ptr, ptr, ptr, ptr, ptr, ptr, ptr, ptr, ptr, ptr, ptr, double, double, double, ptr, i64, i64, i64, i64, ptr }
%struct.OSQPData = type { i64, i64, ptr, ptr, ptr, ptr, ptr }
%struct.OSQPSettings = type { i64, i32, i64, i64, i64, i64, i64, i64, double, i64, double, double, i64, i64, double, i32, i64, i64, double, double, i64, double, double, double, double, i64, i64, double, double, i64 }
%struct.OSQPInfo = type { [32 x i8], i64, i64, double, double, double, i64, i64, double, double, double, double, double, double }
%struct.linsys_solver = type { i32, ptr, ptr, ptr, ptr, ptr, ptr, ptr, ptr, i64 }

@.str.3 = private unnamed_addr constant [14 x i8] c"ERROR in %s: \00", align 1
@.str.5 = private unnamed_addr constant [2 x i8] c"\0A\00", align 1
@__func__.osqp_update_data_mat = private unnamed_addr constant [21 x i8] c"osqp_update_data_mat\00", align 1
@.str.7 = private unnamed_addr constant [57 x i8] c"new number of elements (%i) out of bounds for P (%i max)\00", align 1
@.str.8 = private unnamed_addr constant [50 x i8] c"index vector is required for partial updates of P\00", align 1
@.str.9 = private unnamed_addr constant [57 x i8] c"new number of elements (%i) out of bounds for A (%i max)\00", align 1
@.str.10 = private unnamed_addr constant [50 x i8] c"index vector is required for partial updates of A\00", align 1
@.str.11 = private unnamed_addr constant [36 x i8] c"new KKT matrix is not quasidefinite\00", align 1

; Function Attrs: nounwind uwtable
define i64 @osqp_update_data_mat(ptr noundef %0, ptr noundef %1, ptr noundef %2, i64 noundef %3, ptr noundef %4, ptr noundef %5, i64 noundef %6) #0 {
  %8 = alloca i64, align 8
  %9 = alloca ptr, align 8
  %10 = alloca ptr, align 8
  %11 = alloca ptr, align 8
  %12 = alloca i64, align 8
  %13 = alloca ptr, align 8
  %14 = alloca ptr, align 8
  %15 = alloca i64, align 8
  %16 = alloca i64, align 8
  %17 = alloca i64, align 8
  %18 = alloca i64, align 8
  %19 = alloca ptr, align 8
  store ptr %0, ptr %9, align 8
  store ptr %1, ptr %10, align 8
  store ptr %2, ptr %11, align 8
  store i64 %3, ptr %12, align 8
  store ptr %4, ptr %13, align 8
  store ptr %5, ptr %14, align 8
  store i64 %6, ptr %15, align 8
  %20 = load ptr, ptr %9, align 8
  %21 = icmp ne ptr %20, null
  br i1 %21, label %22, label %27

22:                                               ; preds = %7
  %23 = load ptr, ptr %9, align 8
  %24 = getelementptr inbounds %struct.OSQPSolver, ptr %23, i32 0, i32 3
  %25 = load ptr, ptr %24, align 8
  %26 = icmp ne ptr %25, null
  br i1 %26, label %29, label %27

27:                                               ; preds = %22, %7
  %28 = call i64 @_osqp_error(i32 noundef 6, ptr noundef @__func__.osqp_update_data_mat)
  store i64 %28, ptr %8, align 8
  br label %236

29:                                               ; preds = %22
  %30 = load ptr, ptr %9, align 8
  %31 = getelementptr inbounds %struct.OSQPSolver, ptr %30, i32 0, i32 3
  %32 = load ptr, ptr %31, align 8
  store ptr %32, ptr %19, align 8
  %33 = load ptr, ptr %19, align 8
  %34 = getelementptr inbounds %struct.OSQPWorkspace_, ptr %33, i32 0, i32 31
  %35 = load i64, ptr %34, align 8
  %36 = icmp eq i64 %35, 1
  br i1 %36, label %37, label %44

37:                                               ; preds = %29
  %38 = load ptr, ptr %19, align 8
  %39 = getelementptr inbounds %struct.OSQPWorkspace_, ptr %38, i32 0, i32 31
  store i64 0, ptr %39, align 8
  %40 = load ptr, ptr %9, align 8
  %41 = getelementptr inbounds %struct.OSQPSolver, ptr %40, i32 0, i32 2
  %42 = load ptr, ptr %41, align 8
  %43 = getelementptr inbounds %struct.OSQPInfo, ptr %42, i32 0, i32 11
  store double 0.000000e+00, ptr %43, align 8
  br label %44

44:                                               ; preds = %37, %29
  %45 = load ptr, ptr %19, align 8
  %46 = getelementptr inbounds %struct.OSQPWorkspace_, ptr %45, i32 0, i32 29
  %47 = load ptr, ptr %46, align 8
  call void @osqp_tic(ptr noundef %47)
  %48 = load ptr, ptr %19, align 8
  %49 = getelementptr inbounds %struct.OSQPWorkspace_, ptr %48, i32 0, i32 0
  %50 = load ptr, ptr %49, align 8
  %51 = getelementptr inbounds %struct.OSQPData, ptr %50, i32 0, i32 2
  %52 = load ptr, ptr %51, align 8
  %53 = call i64 @OSQPMatrix_get_nz(ptr noundef %52)
  store i64 %53, ptr %17, align 8
  %54 = load ptr, ptr %19, align 8
  %55 = getelementptr inbounds %struct.OSQPWorkspace_, ptr %54, i32 0, i32 0
  %56 = load ptr, ptr %55, align 8
  %57 = getelementptr inbounds %struct.OSQPData, ptr %56, i32 0, i32 3
  %58 = load ptr, ptr %57, align 8
  %59 = call i64 @OSQPMatrix_get_nz(ptr noundef %58)
  store i64 %59, ptr %18, align 8
  %60 = load i64, ptr %12, align 8
  %61 = load i64, ptr %17, align 8
  %62 = icmp sgt i64 %60, %61
  br i1 %62, label %66, label %63

63:                                               ; preds = %44
  %64 = load i64, ptr %12, align 8
  %65 = icmp slt i64 %64, 0
  br i1 %65, label %66, label %74

66:                                               ; preds = %63, %44
  %67 = call i32 (ptr, ...) @printf(ptr noundef @.str.3, ptr noundef @__func__.osqp_update_data_mat)
  %68 = load i64, ptr %12, align 8
  %69 = trunc i64 %68 to i32
  %70 = load i64, ptr %17, align 8
  %71 = trunc i64 %70 to i32
  %72 = call i32 (ptr, ...) @printf(ptr noundef @.str.7, i32 noundef %69, i32 noundef %71)
  %73 = call i32 (ptr, ...) @printf(ptr noundef @.str.5)
  store i64 1, ptr %8, align 8
  br label %236

74:                                               ; preds = %63
  %75 = load ptr, ptr %11, align 8
  %76 = icmp eq ptr %75, null
  br i1 %76, label %77, label %88

77:                                               ; preds = %74
  %78 = load i64, ptr %12, align 8
  %79 = icmp ne i64 %78, 0
  br i1 %79, label %80, label %88

80:                                               ; preds = %77
  %81 = load i64, ptr %12, align 8
  %82 = load i64, ptr %17, align 8
  %83 = icmp ne i64 %81, %82
  br i1 %83, label %84, label %88

84:                                               ; preds = %80
  %85 = call i32 (ptr, ...) @printf(ptr noundef @.str.3, ptr noundef @__func__.osqp_update_data_mat)
  %86 = call i32 (ptr, ...) @printf(ptr noundef @.str.8)
  %87 = call i32 (ptr, ...) @printf(ptr noundef @.str.5)
  store i64 1, ptr %8, align 8
  br label %236

88:                                               ; preds = %80, %77, %74
  %89 = load i64, ptr %15, align 8
  %90 = load i64, ptr %18, align 8
  %91 = icmp sgt i64 %89, %90
  br i1 %91, label %95, label %92

92:                                               ; preds = %88
  %93 = load i64, ptr %15, align 8
  %94 = icmp slt i64 %93, 0
  br i1 %94, label %95, label %103

95:                                               ; preds = %92, %88
  %96 = call i32 (ptr, ...) @printf(ptr noundef @.str.3, ptr noundef @__func__.osqp_update_data_mat)
  %97 = load i64, ptr %15, align 8
  %98 = trunc i64 %97 to i32
  %99 = load i64, ptr %18, align 8
  %100 = trunc i64 %99 to i32
  %101 = call i32 (ptr, ...) @printf(ptr noundef @.str.9, i32 noundef %98, i32 noundef %100)
  %102 = call i32 (ptr, ...) @printf(ptr noundef @.str.5)
  store i64 2, ptr %8, align 8
  br label %236

103:                                              ; preds = %92
  %104 = load ptr, ptr %14, align 8
  %105 = icmp eq ptr %104, null
  br i1 %105, label %106, label %117

106:                                              ; preds = %103
  %107 = load i64, ptr %15, align 8
  %108 = icmp ne i64 %107, 0
  br i1 %108, label %109, label %117

109:                                              ; preds = %106
  %110 = load i64, ptr %15, align 8
  %111 = load i64, ptr %18, align 8
  %112 = icmp ne i64 %110, %111
  br i1 %112, label %113, label %117

113:                                              ; preds = %109
  %114 = call i32 (ptr, ...) @printf(ptr noundef @.str.3, ptr noundef @__func__.osqp_update_data_mat)
  %115 = call i32 (ptr, ...) @printf(ptr noundef @.str.10)
  %116 = call i32 (ptr, ...) @printf(ptr noundef @.str.5)
  store i64 2, ptr %8, align 8
  br label %236

117:                                              ; preds = %109, %106, %103
  %118 = load ptr, ptr %9, align 8
  %119 = getelementptr inbounds %struct.OSQPSolver, ptr %118, i32 0, i32 0
  %120 = load ptr, ptr %119, align 8
  %121 = getelementptr inbounds %struct.OSQPSettings, ptr %120, i32 0, i32 6
  %122 = load i64, ptr %121, align 8
  %123 = icmp ne i64 %122, 0
  br i1 %123, label %124, label %127

124:                                              ; preds = %117
  %125 = load ptr, ptr %9, align 8
  %126 = call i64 @unscale_data(ptr noundef %125)
  br label %127

127:                                              ; preds = %124, %117
  %128 = load ptr, ptr %10, align 8
  %129 = icmp ne ptr %128, null
  br i1 %129, label %130, label %139

130:                                              ; preds = %127
  %131 = load ptr, ptr %19, align 8
  %132 = getelementptr inbounds %struct.OSQPWorkspace_, ptr %131, i32 0, i32 0
  %133 = load ptr, ptr %132, align 8
  %134 = getelementptr inbounds %struct.OSQPData, ptr %133, i32 0, i32 2
  %135 = load ptr, ptr %134, align 8
  %136 = load ptr, ptr %10, align 8
  %137 = load ptr, ptr %11, align 8
  %138 = load i64, ptr %12, align 8
  call void @OSQPMatrix_update_values(ptr noundef %135, ptr noundef %136, ptr noundef %137, i64 noundef %138)
  br label %139

139:                                              ; preds = %130, %127
  %140 = load ptr, ptr %13, align 8
  %141 = icmp ne ptr %140, null
  br i1 %141, label %142, label %151

142:                                              ; preds = %139
  %143 = load ptr, ptr %19, align 8
  %144 = getelementptr inbounds %struct.OSQPWorkspace_, ptr %143, i32 0, i32 0
  %145 = load ptr, ptr %144, align 8
  %146 = getelementptr inbounds %struct.OSQPData, ptr %145, i32 0, i32 3
  %147 = load ptr, ptr %146, align 8
  %148 = load ptr, ptr %13, align 8
  %149 = load ptr, ptr %14, align 8
  %150 = load i64, ptr %15, align 8
  call void @OSQPMatrix_update_values(ptr noundef %147, ptr noundef %148, ptr noundef %149, i64 noundef %150)
  br label %151

151:                                              ; preds = %142, %139
  %152 = load ptr, ptr %9, align 8
  %153 = getelementptr inbounds %struct.OSQPSolver, ptr %152, i32 0, i32 0
  %154 = load ptr, ptr %153, align 8
  %155 = getelementptr inbounds %struct.OSQPSettings, ptr %154, i32 0, i32 6
  %156 = load i64, ptr %155, align 8
  %157 = icmp ne i64 %156, 0
  br i1 %157, label %158, label %161

158:                                              ; preds = %151
  %159 = load ptr, ptr %9, align 8
  %160 = call i64 @scale_data(ptr noundef %159)
  br label %161

161:                                              ; preds = %158, %151
  %162 = load ptr, ptr %9, align 8
  %163 = getelementptr inbounds %struct.OSQPSolver, ptr %162, i32 0, i32 0
  %164 = load ptr, ptr %163, align 8
  %165 = getelementptr inbounds %struct.OSQPSettings, ptr %164, i32 0, i32 6
  %166 = load i64, ptr %165, align 8
  %167 = icmp ne i64 %166, 0
  br i1 %167, label %168, label %190

168:                                              ; preds = %161
  %169 = load ptr, ptr %19, align 8
  %170 = getelementptr inbounds %struct.OSQPWorkspace_, ptr %169, i32 0, i32 1
  %171 = load ptr, ptr %170, align 8
  %172 = getelementptr inbounds %struct.linsys_solver, ptr %171, i32 0, i32 7
  %173 = load ptr, ptr %172, align 8
  %174 = load ptr, ptr %19, align 8
  %175 = getelementptr inbounds %struct.OSQPWorkspace_, ptr %174, i32 0, i32 1
  %176 = load ptr, ptr %175, align 8
  %177 = load ptr, ptr %19, align 8
  %178 = getelementptr inbounds %struct.OSQPWorkspace_, ptr %177, i32 0, i32 0
  %179 = load ptr, ptr %178, align 8
  %180 = getelementptr inbounds %struct.OSQPData, ptr %179, i32 0, i32 2
  %181 = load ptr, ptr %180, align 8
  %182 = load i64, ptr %17, align 8
  %183 = load ptr, ptr %19, align 8
  %184 = getelementptr inbounds %struct.OSQPWorkspace_, ptr %183, i32 0, i32 0
  %185 = load ptr, ptr %184, align 8
  %186 = getelementptr inbounds %struct.OSQPData, ptr %185, i32 0, i32 3
  %187 = load ptr, ptr %186, align 8
  %188 = load i64, ptr %18, align 8
  %189 = call i64 %173(ptr noundef %176, ptr noundef %181, ptr noundef null, i64 noundef %182, ptr noundef %187, ptr noundef null, i64 noundef %188)
  store i64 %189, ptr %16, align 8
  br label %214

190:                                              ; preds = %161
  %191 = load ptr, ptr %19, align 8
  %192 = getelementptr inbounds %struct.OSQPWorkspace_, ptr %191, i32 0, i32 1
  %193 = load ptr, ptr %192, align 8
  %194 = getelementptr inbounds %struct.linsys_solver, ptr %193, i32 0, i32 7
  %195 = load ptr, ptr %194, align 8
  %196 = load ptr, ptr %19, align 8
  %197 = getelementptr inbounds %struct.OSQPWorkspace_, ptr %196, i32 0, i32 1
  %198 = load ptr, ptr %197, align 8
  %199 = load ptr, ptr %19, align 8
  %200 = getelementptr inbounds %struct.OSQPWorkspace_, ptr %199, i32 0, i32 0
  %201 = load ptr, ptr %200, align 8
  %202 = getelementptr inbounds %struct.OSQPData, ptr %201, i32 0, i32 2
  %203 = load ptr, ptr %202, align 8
  %204 = load ptr, ptr %11, align 8
  %205 = load i64, ptr %12, align 8
  %206 = load ptr, ptr %19, align 8
  %207 = getelementptr inbounds %struct.OSQPWorkspace_, ptr %206, i32 0, i32 0
  %208 = load ptr, ptr %207, align 8
  %209 = getelementptr inbounds %struct.OSQPData, ptr %208, i32 0, i32 3
  %210 = load ptr, ptr %209, align 8
  %211 = load ptr, ptr %14, align 8
  %212 = load i64, ptr %15, align 8
  %213 = call i64 %195(ptr noundef %198, ptr noundef %203, ptr noundef %204, i64 noundef %205, ptr noundef %210, ptr noundef %211, i64 noundef %212)
  store i64 %213, ptr %16, align 8
  br label %214

214:                                              ; preds = %190, %168
  %215 = load ptr, ptr %9, align 8
  %216 = getelementptr inbounds %struct.OSQPSolver, ptr %215, i32 0, i32 2
  %217 = load ptr, ptr %216, align 8
  call void @reset_info(ptr noundef %217)
  %218 = load i64, ptr %16, align 8
  %219 = icmp ne i64 %218, 0
  br i1 %219, label %220, label %224

220:                                              ; preds = %214
  %221 = call i32 (ptr, ...) @printf(ptr noundef @.str.3, ptr noundef @__func__.osqp_update_data_mat)
  %222 = call i32 (ptr, ...) @printf(ptr noundef @.str.11)
  %223 = call i32 (ptr, ...) @printf(ptr noundef @.str.5)
  br label %224

224:                                              ; preds = %220, %214
  %225 = load ptr, ptr %19, align 8
  %226 = getelementptr inbounds %struct.OSQPWorkspace_, ptr %225, i32 0, i32 29
  %227 = load ptr, ptr %226, align 8
  %228 = call double @osqp_toc(ptr noundef %227)
  %229 = load ptr, ptr %9, align 8
  %230 = getelementptr inbounds %struct.OSQPSolver, ptr %229, i32 0, i32 2
  %231 = load ptr, ptr %230, align 8
  %232 = getelementptr inbounds %struct.OSQPInfo, ptr %231, i32 0, i32 11
  %233 = load double, ptr %232, align 8
  %234 = fadd double %233, %228
  store double %234, ptr %232, align 8
  %235 = load i64, ptr %16, align 8
  store i64 %235, ptr %8, align 8
  br label %236

236:                                              ; preds = %224, %113, %95, %84, %66, %27
  %237 = load i64, ptr %8, align 8
  ret i64 %237
}