; Function Attrs: nounwind uwtable
define i64 @osqp_update_data_mat(ptr noundef %0, ptr noundef %1, ptr noundef %2, i64 noundef %3, ptr noundef %4, ptr noundef %5, i64 noundef %6) local_unnamed_addr #0 {
  %.not = icmp eq ptr %0, null
  br i1 %.not, label %11, label %8

8:                                                ; preds = %7
  %9 = getelementptr inbounds i8, ptr %0, i64 24
  %10 = load ptr, ptr %9, align 8
  %.not77 = icmp eq ptr %10, null
  br i1 %.not77, label %11, label %13

11:                                               ; preds = %8, %7
  %12 = tail call i64 @_osqp_error(i32 noundef 6, ptr noundef nonnull @__func__.osqp_update_data_mat) #15
  br label %116

13:                                               ; preds = %8
  %14 = getelementptr inbounds i8, ptr %10, i64 248
  %15 = load i64, ptr %14, align 8
  %16 = icmp eq i64 %15, 1
  br i1 %16, label %17, label %21

17:                                               ; preds = %13
  store i64 0, ptr %14, align 8
  %18 = getelementptr inbounds i8, ptr %0, i64 16
  %19 = load ptr, ptr %18, align 8
  %20 = getelementptr inbounds i8, ptr %19, i64 112
  store double 0.000000e+00, ptr %20, align 8
  br label %21

21:                                               ; preds = %17, %13
  %22 = getelementptr inbounds i8, ptr %10, i64 232
  %23 = load ptr, ptr %22, align 8
  tail call void @osqp_tic(ptr noundef %23) #15
  %24 = load ptr, ptr %10, align 8
  %25 = getelementptr inbounds i8, ptr %24, i64 16
  %26 = load ptr, ptr %25, align 8
  %27 = tail call i64 @OSQPMatrix_get_nz(ptr noundef %26) #15
  %28 = load ptr, ptr %10, align 8
  %29 = getelementptr inbounds i8, ptr %28, i64 24
  %30 = load ptr, ptr %29, align 8
  %31 = tail call i64 @OSQPMatrix_get_nz(ptr noundef %30) #15
  %32 = icmp slt i64 %27, %3
  %33 = icmp slt i64 %3, 0
  %or.cond = or i1 %33, %32
  br i1 %or.cond, label %34, label %39

34:                                               ; preds = %21
  %35 = tail call i32 (ptr, ...) @printf(ptr noundef nonnull dereferenceable(1) @.str.3, ptr noundef nonnull @__func__.osqp_update_data_mat)
  %36 = trunc i64 %3 to i32
  %37 = trunc i64 %27 to i32
  %38 = tail call i32 (ptr, ...) @printf(ptr noundef nonnull dereferenceable(1) @.str.7, i32 noundef %36, i32 noundef %37)
  %putchar89 = tail call i32 @putchar(i32 10)
  br label %116

39:                                               ; preds = %21
  %40 = icmp ne ptr %2, null
  %41 = icmp eq i64 %3, 0
  %or.cond3.not94 = or i1 %40, %41
  %.not78 = icmp eq i64 %27, %3
  %or.cond90 = select i1 %or.cond3.not94, i1 true, i1 %.not78
  br i1 %or.cond90, label %45, label %42

42:                                               ; preds = %39
  %43 = tail call i32 (ptr, ...) @printf(ptr noundef nonnull dereferenceable(1) @.str.3, ptr noundef nonnull @__func__.osqp_update_data_mat)
  %44 = tail call i32 (ptr, ...) @printf(ptr noundef nonnull dereferenceable(1) @.str.8)
  %putchar88 = tail call i32 @putchar(i32 10)
  br label %116

45:                                               ; preds = %39
  %46 = icmp slt i64 %31, %6
  %47 = icmp slt i64 %6, 0
  %or.cond5 = or i1 %47, %46
  br i1 %or.cond5, label %48, label %53

48:                                               ; preds = %45
  %49 = tail call i32 (ptr, ...) @printf(ptr noundef nonnull dereferenceable(1) @.str.3, ptr noundef nonnull @__func__.osqp_update_data_mat)
  %50 = trunc i64 %6 to i32
  %51 = trunc i64 %31 to i32
  %52 = tail call i32 (ptr, ...) @printf(ptr noundef nonnull dereferenceable(1) @.str.9, i32 noundef %50, i32 noundef %51)
  %putchar87 = tail call i32 @putchar(i32 10)
  br label %116

53:                                               ; preds = %45
  %54 = icmp ne ptr %5, null
  %55 = icmp eq i64 %6, 0
  %or.cond7.not97 = or i1 %54, %55
  %.not79 = icmp eq i64 %31, %6
  %or.cond91 = select i1 %or.cond7.not97, i1 true, i1 %.not79
  br i1 %or.cond91, label %59, label %56

56:                                               ; preds = %53
  %57 = tail call i32 (ptr, ...) @printf(ptr noundef nonnull dereferenceable(1) @.str.3, ptr noundef nonnull @__func__.osqp_update_data_mat)
  %58 = tail call i32 (ptr, ...) @printf(ptr noundef nonnull dereferenceable(1) @.str.10)
  %putchar86 = tail call i32 @putchar(i32 10)
  br label %116

59:                                               ; preds = %53
  %60 = load ptr, ptr %0, align 8
  %61 = getelementptr inbounds i8, ptr %60, i64 48
  %62 = load i64, ptr %61, align 8
  %.not80 = icmp eq i64 %62, 0
  br i1 %.not80, label %65, label %63

63:                                               ; preds = %59
  %64 = tail call i64 @unscale_data(ptr noundef nonnull %0) #15
  br label %65

65:                                               ; preds = %63, %59
  %.not81 = icmp eq ptr %1, null
  br i1 %.not81, label %70, label %66

66:                                               ; preds = %65
  %67 = load ptr, ptr %10, align 8
  %68 = getelementptr inbounds i8, ptr %67, i64 16
  %69 = load ptr, ptr %68, align 8
  tail call void @OSQPMatrix_update_values(ptr noundef %69, ptr noundef nonnull %1, ptr noundef %2, i64 noundef %3) #15
  br label %70

70:                                               ; preds = %66, %65
  %.not82 = icmp eq ptr %4, null
  br i1 %.not82, label %75, label %71

71:                                               ; preds = %70
  %72 = load ptr, ptr %10, align 8
  %73 = getelementptr inbounds i8, ptr %72, i64 24
  %74 = load ptr, ptr %73, align 8
  tail call void @OSQPMatrix_update_values(ptr noundef %74, ptr noundef nonnull %4, ptr noundef %5, i64 noundef %6) #15
  br label %75

75:                                               ; preds = %71, %70
  %76 = load ptr, ptr %0, align 8
  %77 = getelementptr inbounds i8, ptr %76, i64 48
  %78 = load i64, ptr %77, align 8
  %.not83 = icmp eq i64 %78, 0
  br i1 %.not83, label %.thread, label %79

79:                                               ; preds = %75
  %80 = tail call i64 @scale_data(ptr noundef nonnull %0) #15
  %.pre = load ptr, ptr %0, align 8
  %.phi.trans.insert = getelementptr inbounds i8, ptr %.pre, i64 48
  %.pre98 = load i64, ptr %.phi.trans.insert, align 8
  %81 = icmp eq i64 %.pre98, 0
  br i1 %81, label %.thread, label %82

82:                                               ; preds = %79
  %83 = getelementptr inbounds i8, ptr %10, i64 8
  %84 = load ptr, ptr %83, align 8
  %85 = getelementptr inbounds i8, ptr %84, i64 56
  %86 = load ptr, ptr %85, align 8
  %87 = load ptr, ptr %10, align 8
  %88 = getelementptr inbounds i8, ptr %87, i64 16
  %89 = load ptr, ptr %88, align 8
  %90 = getelementptr inbounds i8, ptr %87, i64 24
  %91 = load ptr, ptr %90, align 8
  %92 = tail call i64 %86(ptr noundef %84, ptr noundef %89, ptr noundef null, i64 noundef %27, ptr noundef %91, ptr noundef null, i64 noundef %31) #15
  br label %103

.thread:                                          ; preds = %75, %79
  %93 = getelementptr inbounds i8, ptr %10, i64 8
  %94 = load ptr, ptr %93, align 8
  %95 = getelementptr inbounds i8, ptr %94, i64 56
  %96 = load ptr, ptr %95, align 8
  %97 = load ptr, ptr %10, align 8
  %98 = getelementptr inbounds i8, ptr %97, i64 16
  %99 = load ptr, ptr %98, align 8
  %100 = getelementptr inbounds i8, ptr %97, i64 24
  %101 = load ptr, ptr %100, align 8
  %102 = tail call i64 %96(ptr noundef %94, ptr noundef %99, ptr noundef %2, i64 noundef %3, ptr noundef %101, ptr noundef %5, i64 noundef %6) #15
  br label %103

103:                                              ; preds = %.thread, %82
  %.068 = phi i64 [ %92, %82 ], [ %102, %.thread ]
  %104 = getelementptr inbounds i8, ptr %0, i64 16
  %105 = load ptr, ptr %104, align 8
  tail call void @reset_info(ptr noundef %105) #15
  %.not85 = icmp eq i64 %.068, 0
  br i1 %.not85, label %109, label %106

106:                                              ; preds = %103
  %107 = tail call i32 (ptr, ...) @printf(ptr noundef nonnull dereferenceable(1) @.str.3, ptr noundef nonnull @__func__.osqp_update_data_mat)
  %108 = tail call i32 (ptr, ...) @printf(ptr noundef nonnull dereferenceable(1) @.str.11)
  %putchar = tail call i32 @putchar(i32 10)
  br label %109

109:                                              ; preds = %106, %103
  %110 = load ptr, ptr %22, align 8
  %111 = tail call double @osqp_toc(ptr noundef %110) #15
  %112 = load ptr, ptr %104, align 8
  %113 = getelementptr inbounds i8, ptr %112, i64 112
  %114 = load double, ptr %113, align 8
  %115 = fadd double %111, %114
  store double %115, ptr %113, align 8
  br label %116

116:                                              ; preds = %109, %56, %48, %42, %34, %11
  %.0 = phi i64 [ 1, %34 ], [ 1, %42 ], [ 2, %48 ], [ 2, %56 ], [ %.068, %109 ], [ %12, %11 ]
  ret i64 %.0
}